; Function Attrs: mustprogress uwtable
define internal void @"_ZNSt6thread11_State_implINS_8_InvokerISt5tupleIJZN5faiss12WorkerThread11startThreadEvE3$_0EEEEE6_M_runEv"(ptr noundef nonnull readonly align 8 captures(none) dereferenceable(16) %0) unnamed_addr #0 align 2 {
  %2 = getelementptr inbounds nuw i8, ptr %0, i64 8
  %.val = load ptr, ptr %2, align 8, !tbaa !148
  tail call void @_ZN5faiss12WorkerThread10threadLoopEv(ptr noundef nonnull align 8 dereferenceable(184) %.val)
  %3 = getelementptr inbounds nuw i8, ptr %.val, i64 96
  %4 = load i8, ptr %3, align 8, !tbaa !4, !range !50, !noundef !51
  %5 = trunc nuw i8 %4 to i1
  br i1 %5, label %9, label %6

6:                                                ; preds = %1
  %7 = load ptr, ptr @stderr, align 8, !tbaa !150
  %8 = tail call i32 (ptr, ptr, ...) @fprintf(ptr noundef %7, ptr noundef nonnull @.str.4, ptr noundef nonnull @.str.5, ptr noundef nonnull @__PRETTY_FUNCTION__._ZN5faiss12WorkerThread10threadMainEv, ptr noundef nonnull @.str.6, i32 noundef 79) #31
  tail call void @abort() #27
  unreachable

9:                                                ; preds = %1
  %10 = getelementptr inbounds nuw i8, ptr %.val, i64 120
  %11 = load ptr, ptr %10, align 8, !tbaa !95, !noalias !152
  %12 = getelementptr inbounds nuw i8, ptr %.val, i64 152
  %13 = load ptr, ptr %12, align 8, !tbaa !95, !noalias !155
  %.not8.i.i.i.i.i.i = icmp eq ptr %11, %13
  br i1 %.not8.i.i.i.i.i.i, label %"_ZNSt6thread8_InvokerISt5tupleIJZN5faiss12WorkerThread11startThreadEvE3$_0EEEclEv.exit", label %.lr.ph.preheader.i.i.i.i.i.i

.lr.ph.preheader.i.i.i.i.i.i:                     ; preds = %9
  %14 = getelementptr inbounds nuw i8, ptr %.val, i64 144
  %15 = load ptr, ptr %14, align 8, !tbaa !101, !noalias !152
  %16 = getelementptr inbounds nuw i8, ptr %.val, i64 136
  %17 = load ptr, ptr %16, align 8, !tbaa !100, !noalias !152
  br label %.lr.ph.i.i.i.i.i.i

.lr.ph.i.i.i.i.i.i:                               ; preds = %_ZNSt15_Deque_iteratorISt4pairISt8functionIFvvEESt7promiseIbEERS6_PS6_EppEv.exit.i.i.i.i.i.i, %.lr.ph.preheader.i.i.i.i.i.i
  %.sroa.13.011.i.i.i.i.i.i = phi ptr [ %.sroa.13.1.i.i.i.i.i.i, %_ZNSt15_Deque_iteratorISt4pairISt8functionIFvvEESt7promiseIbEERS6_PS6_EppEv.exit.i.i.i.i.i.i ], [ %15, %.lr.ph.preheader.i.i.i.i.i.i ]
  %.sroa.10.010.i.i.i.i.i.i = phi ptr [ %.sroa.10.1.i.i.i.i.i.i, %_ZNSt15_Deque_iteratorISt4pairISt8functionIFvvEESt7promiseIbEERS6_PS6_EppEv.exit.i.i.i.i.i.i ], [ %17, %.lr.ph.preheader.i.i.i.i.i.i ]
  %.sroa.05.09.i.i.i.i.i.i = phi ptr [ %.sroa.05.1.i.i.i.i.i.i, %_ZNSt15_Deque_iteratorISt4pairISt8functionIFvvEESt7promiseIbEERS6_PS6_EppEv.exit.i.i.i.i.i.i ], [ %11, %.lr.ph.preheader.i.i.i.i.i.i ]
  %18 = getelementptr inbounds nuw i8, ptr %.sroa.05.09.i.i.i.i.i.i, i64 32
  tail call fastcc void @_ZN5faiss12_GLOBAL__N_111runCallbackERSt8functionIFvvEERSt7promiseIbE(ptr noundef nonnull align 8 dereferenceable(32) %.sroa.05.09.i.i.i.i.i.i, ptr noundef nonnull align 8 dereferenceable(24) %18)
  %19 = getelementptr inbounds nuw i8, ptr %.sroa.05.09.i.i.i.i.i.i, i64 56
  %20 = icmp eq ptr %19, %.sroa.10.010.i.i.i.i.i.i
  br i1 %20, label %21, label %_ZNSt15_Deque_iteratorISt4pairISt8functionIFvvEESt7promiseIbEERS6_PS6_EppEv.exit.i.i.i.i.i.i

21:                                               ; preds = %.lr.ph.i.i.i.i.i.i
  %22 = getelementptr inbounds nuw i8, ptr %.sroa.13.011.i.i.i.i.i.i, i64 8
  %23 = load ptr, ptr %22, align 8, !tbaa !108
  %24 = getelementptr inbounds nuw i8, ptr %23, i64 504
  br label %_ZNSt15_Deque_iteratorISt4pairISt8functionIFvvEESt7promiseIbEERS6_PS6_EppEv.exit.i.i.i.i.i.i

_ZNSt15_Deque_iteratorISt4pairISt8functionIFvvEESt7promiseIbEERS6_PS6_EppEv.exit.i.i.i.i.i.i: ; preds = %21, %.lr.ph.i.i.i.i.i.i
  %.sroa.05.1.i.i.i.i.i.i = phi ptr [ %23, %21 ], [ %19, %.lr.ph.i.i.i.i.i.i ]
  %.sroa.10.1.i.i.i.i.i.i = phi ptr [ %24, %21 ], [ %.sroa.10.010.i.i.i.i.i.i, %.lr.ph.i.i.i.i.i.i ]
  %.sroa.13.1.i.i.i.i.i.i = phi ptr [ %22, %21 ], [ %.sroa.13.011.i.i.i.i.i.i, %.lr.ph.i.i.i.i.i.i ]
  %.not.i.i.i.i.i.i = icmp eq ptr %.sroa.05.1.i.i.i.i.i.i, %13
  br i1 %.not.i.i.i.i.i.i, label %"_ZNSt6thread8_InvokerISt5tupleIJZN5faiss12WorkerThread11startThreadEvE3$_0EEEclEv.exit", label %.lr.ph.i.i.i.i.i.i

"_ZNSt6thread8_InvokerISt5tupleIJZN5faiss12WorkerThread11startThreadEvE3$_0EEEclEv.exit": ; preds = %_ZNSt15_Deque_iteratorISt4pairISt8functionIFvvEESt7promiseIbEERS6_PS6_EppEv.exit.i.i.i.i.i.i, %9
  ret void
}